target datalayout = "e-m:e-p270:32:32-p271:32:32-p272:64:64-i64:64-i128:128-f80:128-n8:16:32:64-S128"
target triple = "x86_64-pc-linux-gnu"

@_ZL4g_mu = internal global i64 0, align 8
@_ZL10g_threaded = internal global i8 0, align 1

; Function Attrs: mustprogress uwtable
define internal void @_ZL13start_threadsv() #4 {
  call void @gpr_mu_lock(ptr noundef @_ZL4g_mu)
  %1 = load i8, ptr @_ZL10g_threaded, align 1, !tbaa !28, !range !35, !noundef !36
  %2 = trunc i8 %1 to i1
  br i1 %2, label %4, label %3

3:                                                ; preds = %0
  store i8 1, ptr @_ZL10g_threaded, align 1, !tbaa !28
  call void @_ZL29start_timer_thread_and_unlockv()
  br label %5

4:                                                ; preds = %0
  call void @gpr_mu_unlock(ptr noundef @_ZL4g_mu)
  br label %5

5:                                                ; preds = %4, %3
  ret void
}

; Function Attrs: mustprogress uwtable
define void @_Z32grpc_timer_manager_set_threadingb(i1 noundef zeroext %0) #4 {
  %2 = alloca i8, align 1
  %3 = zext i1 %0 to i8
  store i8 %3, ptr %2, align 1, !tbaa !28
  %4 = load i8, ptr %2, align 1, !tbaa !28, !range !35, !noundef !36
  %5 = trunc i8 %4 to i1
  br i1 %5, label %6, label %7

6:                                                ; preds = %1
  call void @_ZL13start_threadsv()
  br label %8

7:                                                ; preds = %1
  call void @_ZL12stop_threadsv()
  br label %8

8:                                                ; preds = %7, %6
  ret void
}