; Function Attrs: mustprogress uwtable
define void @_Z32grpc_timer_manager_set_threadingb(i1 noundef zeroext %0) local_unnamed_addr #6 {
  br i1 %0, label %2, label %5

2:                                                ; preds = %1
  tail call void @gpr_mu_lock(ptr noundef nonnull @_ZL4g_mu)
  %.b1.i = load i1, ptr @_ZL10g_threaded, align 1
  br i1 %.b1.i, label %4, label %3

3:                                                ; preds = %2
  store i1 true, ptr @_ZL10g_threaded, align 1
  tail call fastcc void @_ZL29start_timer_thread_and_unlockv()
  br label %_ZL13start_threadsv.exit

4:                                                ; preds = %2
  tail call void @gpr_mu_unlock(ptr noundef nonnull @_ZL4g_mu)
  br label %_ZL13start_threadsv.exit

5:                                                ; preds = %1
  tail call fastcc void @_ZL12stop_threadsv()
  br label %_ZL13start_threadsv.exit

_ZL13start_threadsv.exit:                         ; preds = %4, %3, %5
  ret void
}